; Function Attrs: nounwind uwtable
define i32 @X509V3_EXT_REQ_add_conf(ptr noundef %0, ptr noundef %1, ptr noundef %2, ptr noundef %3) local_unnamed_addr #0 {
  %5 = alloca ptr, align 8
  %6 = tail call ptr @NCONF_new(ptr noundef null) #6
  %7 = icmp eq ptr %6, null
  br i1 %7, label %17, label %8

8:                                                ; preds = %4
  tail call void @CONF_set_nconf(ptr noundef nonnull %6, ptr noundef %0) #6
  call void @llvm.lifetime.start.p0(i64 8, ptr nonnull %5) #6
  store ptr null, ptr %5, align 8, !tbaa !40
  %9 = call i32 @X509V3_EXT_add_nconf_sk(ptr noundef nonnull %6, ptr noundef %1, ptr noundef %2, ptr noundef nonnull %5)
  %10 = icmp ne i32 %9, 0
  %11 = icmp ne ptr %3, null
  %or.cond.i = and i1 %11, %10
  %12 = load ptr, ptr %5, align 8
  %13 = icmp ne ptr %12, null
  %or.cond3.i = select i1 %or.cond.i, i1 %13, i1 false
  br i1 %or.cond3.i, label %14, label %X509V3_EXT_REQ_add_nconf.exit

14:                                               ; preds = %8
  %15 = call i32 @X509_REQ_add_extensions(ptr noundef nonnull %3, ptr noundef nonnull %12) #6
  %.pre.i = load ptr, ptr %5, align 8, !tbaa !40
  br label %X509V3_EXT_REQ_add_nconf.exit

X509V3_EXT_REQ_add_nconf.exit:                    ; preds = %8, %14
  %16 = phi ptr [ %.pre.i, %14 ], [ %12, %8 ]
  %.0.i = phi i32 [ %15, %14 ], [ %9, %8 ]
  call void @OPENSSL_sk_pop_free(ptr noundef %16, ptr noundef nonnull @X509_EXTENSION_free) #6
  call void @llvm.lifetime.end.p0(i64 8, ptr nonnull %5) #6
  call void @CONF_set_nconf(ptr noundef nonnull %6, ptr noundef null) #6
  call void @NCONF_free(ptr noundef nonnull %6) #6
  br label %17

17:                                               ; preds = %4, %X509V3_EXT_REQ_add_nconf.exit
  %.0 = phi i32 [ %.0.i, %X509V3_EXT_REQ_add_nconf.exit ], [ 0, %4 ]
  ret i32 %.0
}